target datalayout = "e-m:e-p270:32:32-p271:32:32-p272:64:64-i64:64-i128:128-f80:128-n8:16:32:64-S128"
target triple = "x86_64-pc-linux-gnu"

; Function Attrs: inlinehint nounwind willreturn memory(none) uwtable
define internal i32 @av_isspace(i32 noundef %0) #8 {
  %2 = alloca i32, align 4
  store i32 %0, ptr %2, align 4, !tbaa !11
  %3 = load i32, ptr %2, align 4, !tbaa !11
  %4 = icmp eq i32 %3, 32
  br i1 %4, label %20, label %5

5:                                                ; preds = %1
  %6 = load i32, ptr %2, align 4, !tbaa !11
  %7 = icmp eq i32 %6, 12
  br i1 %7, label %20, label %8

8:                                                ; preds = %5
  %9 = load i32, ptr %2, align 4, !tbaa !11
  %10 = icmp eq i32 %9, 10
  br i1 %10, label %20, label %11

11:                                               ; preds = %8
  %12 = load i32, ptr %2, align 4, !tbaa !11
  %13 = icmp eq i32 %12, 13
  br i1 %13, label %20, label %14

14:                                               ; preds = %11
  %15 = load i32, ptr %2, align 4, !tbaa !11
  %16 = icmp eq i32 %15, 9
  br i1 %16, label %20, label %17

17:                                               ; preds = %14
  %18 = load i32, ptr %2, align 4, !tbaa !11
  %19 = icmp eq i32 %18, 11
  br label %20

20:                                               ; preds = %17, %14, %11, %8, %5, %1
  %21 = phi i1 [ true, %14 ], [ true, %11 ], [ true, %8 ], [ true, %5 ], [ true, %1 ], [ %19, %17 ]
  %22 = zext i1 %21 to i32
  ret i32 %22
}

; Function Attrs: nounwind uwtable
define i32 @ff_get_chomp_line(ptr noundef %0, ptr noundef %1, i32 noundef %2) #0 {
  %4 = alloca ptr, align 8
  %5 = alloca ptr, align 8
  %6 = alloca i32, align 4
  %7 = alloca i32, align 4
  store ptr %0, ptr %4, align 8, !tbaa !14
  store ptr %1, ptr %5, align 8, !tbaa !9
  store i32 %2, ptr %6, align 4, !tbaa !11
  call void @llvm.lifetime.start.p0(i64 4, ptr %7) #12
  %8 = load ptr, ptr %4, align 8, !tbaa !14
  %9 = load ptr, ptr %5, align 8, !tbaa !9
  %10 = load i32, ptr %6, align 4, !tbaa !11
  %11 = call i32 @ff_get_line(ptr noundef %8, ptr noundef %9, i32 noundef %10)
  store i32 %11, ptr %7, align 4, !tbaa !11
  br label %12

12:                                               ; preds = %27, %3
  %13 = load i32, ptr %7, align 4, !tbaa !11
  %14 = icmp sgt i32 %13, 0
  br i1 %14, label %15, label %25

15:                                               ; preds = %12
  %16 = load ptr, ptr %5, align 8, !tbaa !9
  %17 = load i32, ptr %7, align 4, !tbaa !11
  %18 = sub nsw i32 %17, 1
  %19 = sext i32 %18 to i64
  %20 = getelementptr inbounds i8, ptr %16, i64 %19
  %21 = load i8, ptr %20, align 1, !tbaa !50
  %22 = sext i8 %21 to i32
  %23 = call i32 @av_isspace(i32 noundef %22) #14
  %24 = icmp ne i32 %23, 0
  br label %25

25:                                               ; preds = %15, %12
  %26 = phi i1 [ false, %12 ], [ %24, %15 ]
  br i1 %26, label %27, label %33

27:                                               ; preds = %25
  %28 = load ptr, ptr %5, align 8, !tbaa !9
  %29 = load i32, ptr %7, align 4, !tbaa !11
  %30 = add nsw i32 %29, -1
  store i32 %30, ptr %7, align 4, !tbaa !11
  %31 = sext i32 %30 to i64
  %32 = getelementptr inbounds i8, ptr %28, i64 %31
  store i8 0, ptr %32, align 1, !tbaa !50
  br label %12, !llvm.loop !73

33:                                               ; preds = %25
  %34 = load i32, ptr %7, align 4, !tbaa !11
  call void @llvm.lifetime.end.p0(i64 4, ptr %7) #12
  ret i32 %34
}